target datalayout = "e-m:e-p270:32:32-p271:32:32-p272:64:64-i64:64-i128:128-f80:128-n8:16:32:64-S128"
target triple = "x86_64-pc-linux-gnu"

@hf_x11_struct_render_TRANSFORM = internal global i32 0, align 4
@hf_x11_struct_render_TRANSFORM_matrix11 = internal global i32 0, align 4
@hf_x11_struct_render_TRANSFORM_matrix12 = internal global i32 0, align 4
@hf_x11_struct_render_TRANSFORM_matrix13 = internal global i32 0, align 4
@hf_x11_struct_render_TRANSFORM_matrix21 = internal global i32 0, align 4
@hf_x11_struct_render_TRANSFORM_matrix22 = internal global i32 0, align 4
@hf_x11_struct_render_TRANSFORM_matrix23 = internal global i32 0, align 4
@hf_x11_struct_render_TRANSFORM_matrix31 = internal global i32 0, align 4
@hf_x11_struct_render_TRANSFORM_matrix32 = internal global i32 0, align 4
@hf_x11_struct_render_TRANSFORM_matrix33 = internal global i32 0, align 4
@ett_x11_rectangle = internal global i32 0, align 4

; Function Attrs: null_pointer_is_valid sspstrong uwtable
define internal void @struct_render_TRANSFORM(ptr noundef %0, ptr noundef %1, ptr noundef %2, i32 noundef %3, i32 noundef %4) #1 {
  %6 = alloca ptr, align 8
  %7 = alloca ptr, align 8
  %8 = alloca ptr, align 8
  %9 = alloca i32, align 4
  %10 = alloca i32, align 4
  %11 = alloca i32, align 4
  %12 = alloca ptr, align 8
  %13 = alloca ptr, align 8
  store ptr %0, ptr %6, align 8
  store ptr %1, ptr %7, align 8
  store ptr %2, ptr %8, align 8
  store i32 %3, ptr %9, align 4
  store i32 %4, ptr %10, align 4
  call void @llvm.lifetime.start.p0(i64 4, ptr %11) #11
  store i32 0, ptr %11, align 4
  br label %14

14:                                               ; preds = %118, %5
  %15 = load i32, ptr %11, align 4
  %16 = load i32, ptr %10, align 4
  %17 = icmp slt i32 %15, %16
  br i1 %17, label %18, label %121

18:                                               ; preds = %14
  call void @llvm.lifetime.start.p0(i64 8, ptr %12) #11
  call void @llvm.lifetime.start.p0(i64 8, ptr %13) #11
  %19 = load ptr, ptr %8, align 8
  %20 = load i32, ptr @hf_x11_struct_render_TRANSFORM, align 4
  %21 = load ptr, ptr %6, align 8
  %22 = load ptr, ptr %7, align 8
  %23 = load i32, ptr %22, align 4
  %24 = call ptr @proto_tree_add_item(ptr noundef %19, i32 noundef %20, ptr noundef %21, i32 noundef %23, i32 noundef 36, i32 noundef 0)
  store ptr %24, ptr %12, align 8
  %25 = load ptr, ptr %12, align 8
  %26 = load i32, ptr @ett_x11_rectangle, align 4
  %27 = call ptr @proto_item_add_subtree(ptr noundef %25, i32 noundef %26)
  store ptr %27, ptr %13, align 8
  %28 = load ptr, ptr %13, align 8
  %29 = load i32, ptr @hf_x11_struct_render_TRANSFORM_matrix11, align 4
  %30 = load ptr, ptr %6, align 8
  %31 = load ptr, ptr %7, align 8
  %32 = load i32, ptr %31, align 4
  %33 = load i32, ptr %9, align 4
  %34 = call ptr @proto_tree_add_item(ptr noundef %28, i32 noundef %29, ptr noundef %30, i32 noundef %32, i32 noundef 4, i32 noundef %33)
  %35 = load ptr, ptr %7, align 8
  %36 = load i32, ptr %35, align 4
  %37 = add i32 %36, 4
  store i32 %37, ptr %35, align 4
  %38 = load ptr, ptr %13, align 8
  %39 = load i32, ptr @hf_x11_struct_render_TRANSFORM_matrix12, align 4
  %40 = load ptr, ptr %6, align 8
  %41 = load ptr, ptr %7, align 8
  %42 = load i32, ptr %41, align 4
  %43 = load i32, ptr %9, align 4
  %44 = call ptr @proto_tree_add_item(ptr noundef %38, i32 noundef %39, ptr noundef %40, i32 noundef %42, i32 noundef 4, i32 noundef %43)
  %45 = load ptr, ptr %7, align 8
  %46 = load i32, ptr %45, align 4
  %47 = add i32 %46, 4
  store i32 %47, ptr %45, align 4
  %48 = load ptr, ptr %13, align 8
  %49 = load i32, ptr @hf_x11_struct_render_TRANSFORM_matrix13, align 4
  %50 = load ptr, ptr %6, align 8
  %51 = load ptr, ptr %7, align 8
  %52 = load i32, ptr %51, align 4
  %53 = load i32, ptr %9, align 4
  %54 = call ptr @proto_tree_add_item(ptr noundef %48, i32 noundef %49, ptr noundef %50, i32 noundef %52, i32 noundef 4, i32 noundef %53)
  %55 = load ptr, ptr %7, align 8
  %56 = load i32, ptr %55, align 4
  %57 = add i32 %56, 4
  store i32 %57, ptr %55, align 4
  %58 = load ptr, ptr %13, align 8
  %59 = load i32, ptr @hf_x11_struct_render_TRANSFORM_matrix21, align 4
  %60 = load ptr, ptr %6, align 8
  %61 = load ptr, ptr %7, align 8
  %62 = load i32, ptr %61, align 4
  %63 = load i32, ptr %9, align 4
  %64 = call ptr @proto_tree_add_item(ptr noundef %58, i32 noundef %59, ptr noundef %60, i32 noundef %62, i32 noundef 4, i32 noundef %63)
  %65 = load ptr, ptr %7, align 8
  %66 = load i32, ptr %65, align 4
  %67 = add i32 %66, 4
  store i32 %67, ptr %65, align 4
  %68 = load ptr, ptr %13, align 8
  %69 = load i32, ptr @hf_x11_struct_render_TRANSFORM_matrix22, align 4
  %70 = load ptr, ptr %6, align 8
  %71 = load ptr, ptr %7, align 8
  %72 = load i32, ptr %71, align 4
  %73 = load i32, ptr %9, align 4
  %74 = call ptr @proto_tree_add_item(ptr noundef %68, i32 noundef %69, ptr noundef %70, i32 noundef %72, i32 noundef 4, i32 noundef %73)
  %75 = load ptr, ptr %7, align 8
  %76 = load i32, ptr %75, align 4
  %77 = add i32 %76, 4
  store i32 %77, ptr %75, align 4
  %78 = load ptr, ptr %13, align 8
  %79 = load i32, ptr @hf_x11_struct_render_TRANSFORM_matrix23, align 4
  %80 = load ptr, ptr %6, align 8
  %81 = load ptr, ptr %7, align 8
  %82 = load i32, ptr %81, align 4
  %83 = load i32, ptr %9, align 4
  %84 = call ptr @proto_tree_add_item(ptr noundef %78, i32 noundef %79, ptr noundef %80, i32 noundef %82, i32 noundef 4, i32 noundef %83)
  %85 = load ptr, ptr %7, align 8
  %86 = load i32, ptr %85, align 4
  %87 = add i32 %86, 4
  store i32 %87, ptr %85, align 4
  %88 = load ptr, ptr %13, align 8
  %89 = load i32, ptr @hf_x11_struct_render_TRANSFORM_matrix31, align 4
  %90 = load ptr, ptr %6, align 8
  %91 = load ptr, ptr %7, align 8
  %92 = load i32, ptr %91, align 4
  %93 = load i32, ptr %9, align 4
  %94 = call ptr @proto_tree_add_item(ptr noundef %88, i32 noundef %89, ptr noundef %90, i32 noundef %92, i32 noundef 4, i32 noundef %93)
  %95 = load ptr, ptr %7, align 8
  %96 = load i32, ptr %95, align 4
  %97 = add i32 %96, 4
  store i32 %97, ptr %95, align 4
  %98 = load ptr, ptr %13, align 8
  %99 = load i32, ptr @hf_x11_struct_render_TRANSFORM_matrix32, align 4
  %100 = load ptr, ptr %6, align 8
  %101 = load ptr, ptr %7, align 8
  %102 = load i32, ptr %101, align 4
  %103 = load i32, ptr %9, align 4
  %104 = call ptr @proto_tree_add_item(ptr noundef %98, i32 noundef %99, ptr noundef %100, i32 noundef %102, i32 noundef 4, i32 noundef %103)
  %105 = load ptr, ptr %7, align 8
  %106 = load i32, ptr %105, align 4
  %107 = add i32 %106, 4
  store i32 %107, ptr %105, align 4
  %108 = load ptr, ptr %13, align 8
  %109 = load i32, ptr @hf_x11_struct_render_TRANSFORM_matrix33, align 4
  %110 = load ptr, ptr %6, align 8
  %111 = load ptr, ptr %7, align 8
  %112 = load i32, ptr %111, align 4
  %113 = load i32, ptr %9, align 4
  %114 = call ptr @proto_tree_add_item(ptr noundef %108, i32 noundef %109, ptr noundef %110, i32 noundef %112, i32 noundef 4, i32 noundef %113)
  %115 = load ptr, ptr %7, align 8
  %116 = load i32, ptr %115, align 4
  %117 = add i32 %116, 4
  store i32 %117, ptr %115, align 4
  call void @llvm.lifetime.end.p0(i64 8, ptr %13) #11
  call void @llvm.lifetime.end.p0(i64 8, ptr %12) #11
  br label %118

118:                                              ; preds = %18
  %119 = load i32, ptr %11, align 4
  %120 = add i32 %119, 1
  store i32 %120, ptr %11, align 4
  br label %14, !llvm.loop !72

121:                                              ; preds = %14
  call void @llvm.lifetime.end.p0(i64 4, ptr %11) #11
  ret void
}