; Function Attrs: null_pointer_is_valid sspstrong uwtable
define internal fastcc void @struct_render_TRANSFORM(ptr noundef %0, ptr noundef captures(none) %1, ptr noundef %2, i32 noundef %3) unnamed_addr #1 {
.critedge:
  %4 = load i32, ptr @hf_x11_struct_render_TRANSFORM, align 4
  %5 = load i32, ptr %1, align 4
  %6 = tail call ptr @proto_tree_add_item(ptr noundef %2, i32 noundef %4, ptr noundef %0, i32 noundef %5, i32 noundef 36, i32 noundef 0)
  %7 = load i32, ptr @ett_x11_rectangle, align 4
  %8 = tail call ptr @proto_item_add_subtree(ptr noundef %6, i32 noundef %7)
  %9 = load i32, ptr @hf_x11_struct_render_TRANSFORM_matrix11, align 4
  %10 = load i32, ptr %1, align 4
  %11 = tail call ptr @proto_tree_add_item(ptr noundef %8, i32 noundef %9, ptr noundef %0, i32 noundef %10, i32 noundef 4, i32 noundef %3)
  %12 = load i32, ptr %1, align 4
  %13 = add i32 %12, 4
  store i32 %13, ptr %1, align 4
  %14 = load i32, ptr @hf_x11_struct_render_TRANSFORM_matrix12, align 4
  %15 = tail call ptr @proto_tree_add_item(ptr noundef %8, i32 noundef %14, ptr noundef %0, i32 noundef %13, i32 noundef 4, i32 noundef %3)
  %16 = load i32, ptr %1, align 4
  %17 = add i32 %16, 4
  store i32 %17, ptr %1, align 4
  %18 = load i32, ptr @hf_x11_struct_render_TRANSFORM_matrix13, align 4
  %19 = tail call ptr @proto_tree_add_item(ptr noundef %8, i32 noundef %18, ptr noundef %0, i32 noundef %17, i32 noundef 4, i32 noundef %3)
  %20 = load i32, ptr %1, align 4
  %21 = add i32 %20, 4
  store i32 %21, ptr %1, align 4
  %22 = load i32, ptr @hf_x11_struct_render_TRANSFORM_matrix21, align 4
  %23 = tail call ptr @proto_tree_add_item(ptr noundef %8, i32 noundef %22, ptr noundef %0, i32 noundef %21, i32 noundef 4, i32 noundef %3)
  %24 = load i32, ptr %1, align 4
  %25 = add i32 %24, 4
  store i32 %25, ptr %1, align 4
  %26 = load i32, ptr @hf_x11_struct_render_TRANSFORM_matrix22, align 4
  %27 = tail call ptr @proto_tree_add_item(ptr noundef %8, i32 noundef %26, ptr noundef %0, i32 noundef %25, i32 noundef 4, i32 noundef %3)
  %28 = load i32, ptr %1, align 4
  %29 = add i32 %28, 4
  store i32 %29, ptr %1, align 4
  %30 = load i32, ptr @hf_x11_struct_render_TRANSFORM_matrix23, align 4
  %31 = tail call ptr @proto_tree_add_item(ptr noundef %8, i32 noundef %30, ptr noundef %0, i32 noundef %29, i32 noundef 4, i32 noundef %3)
  %32 = load i32, ptr %1, align 4
  %33 = add i32 %32, 4
  store i32 %33, ptr %1, align 4
  %34 = load i32, ptr @hf_x11_struct_render_TRANSFORM_matrix31, align 4
  %35 = tail call ptr @proto_tree_add_item(ptr noundef %8, i32 noundef %34, ptr noundef %0, i32 noundef %33, i32 noundef 4, i32 noundef %3)
  %36 = load i32, ptr %1, align 4
  %37 = add i32 %36, 4
  store i32 %37, ptr %1, align 4
  %38 = load i32, ptr @hf_x11_struct_render_TRANSFORM_matrix32, align 4
  %39 = tail call ptr @proto_tree_add_item(ptr noundef %8, i32 noundef %38, ptr noundef %0, i32 noundef %37, i32 noundef 4, i32 noundef %3)
  %40 = load i32, ptr %1, align 4
  %41 = add i32 %40, 4
  store i32 %41, ptr %1, align 4
  %42 = load i32, ptr @hf_x11_struct_render_TRANSFORM_matrix33, align 4
  %43 = tail call ptr @proto_tree_add_item(ptr noundef %8, i32 noundef %42, ptr noundef %0, i32 noundef %41, i32 noundef 4, i32 noundef %3)
  %44 = load i32, ptr %1, align 4
  %45 = add i32 %44, 4
  store i32 %45, ptr %1, align 4
  ret void
}